; Function Attrs: nounwind sspstrong uwtable
define hidden range(i64 1, 0) i64 @rb_reg_hash(i64 noundef %0) #2 {
  %2 = inttoptr i64 %0 to ptr
  %3 = getelementptr inbounds nuw i8, ptr %2, i64 16
  %4 = load ptr, ptr %3, align 8, !tbaa !37
  %.not.i.i = icmp eq ptr %4, null
  br i1 %.not.i.i, label %13, label %5

5:                                                ; preds = %1
  %6 = getelementptr inbounds nuw i8, ptr %2, i64 24
  %7 = load i64, ptr %6, align 8, !tbaa !52
  %.not3.i.i = icmp eq i64 %7, 0
  br i1 %.not3.i.i, label %13, label %8

8:                                                ; preds = %5
  %9 = inttoptr i64 %7 to ptr
  %10 = load i64, ptr %9, align 8, !tbaa !34, !noalias !130
  %11 = and i64 %10, 8192
  %.not.i.i.i.i.i = icmp eq i64 %11, 0
  %12 = getelementptr inbounds nuw i8, ptr %9, i64 24
  br i1 %.not.i.i.i.i.i, label %reg_hash.exit, label %RREGEXP_SRC_PTR.exit.i.i

RREGEXP_SRC_PTR.exit.i.i:                         ; preds = %8
  %.sroa.2.0.copyload.i.i.i.i = load ptr, ptr %12, align 8
  %.not4.i.i = icmp eq ptr %.sroa.2.0.copyload.i.i.i.i, null
  br i1 %.not4.i.i, label %13, label %reg_hash.exit

13:                                               ; preds = %RREGEXP_SRC_PTR.exit.i.i, %5, %1
  %14 = load i64, ptr @rb_eTypeError, align 8, !tbaa !18
  tail call void (i64, ptr, ...) @rb_raise(i64 noundef %14, ptr noundef nonnull @.str.71) #30
  unreachable

reg_hash.exit:                                    ; preds = %8, %RREGEXP_SRC_PTR.exit.i.i
  %.sroa.2.0.i.i.i = phi ptr [ %.sroa.2.0.copyload.i.i.i.i, %RREGEXP_SRC_PTR.exit.i.i ], [ %12, %8 ]
  %.in.in.i = getelementptr inbounds nuw i8, ptr %4, i64 56
  %.in.i = load i32, ptr %.in.in.i, align 8, !tbaa !61
  %15 = zext i32 %.in.i to i64
  %16 = getelementptr inbounds nuw i8, ptr %9, i64 16
  %17 = load i64, ptr %16, align 8, !tbaa !35
  %18 = tail call i64 @rb_memhash(ptr noundef nonnull %.sroa.2.0.i.i.i, i64 noundef %17) #29
  %19 = tail call i64 @rb_st_hash_uint(i64 noundef %15, i64 noundef %18) #35
  %20 = tail call i64 @rb_st_hash_end(i64 noundef %19) #35
  %21 = and i64 %20, 4611686018427387903
  %22 = icmp slt i64 %20, 0
  %masksel.i = select i1 %22, i64 -4611686018427387904, i64 0
  %.0.i = or disjoint i64 %masksel.i, %21
  %23 = shl nsw i64 %.0.i, 1
  %24 = or disjoint i64 %23, 1
  ret i64 %24
}